; Function Attrs: mustprogress nounwind uwtable
define internal void @_ZZN3nix12sourceToSinkESt8functionIFvRNS_6SourceEEEEN12SourceToSinkD0Ev(ptr noundef nonnull align 8 dereferenceable(72) %0) unnamed_addr #3 align 2 personality ptr @__gxx_personality_v0 {
  store ptr getelementptr inbounds ({ [11 x ptr] }, ptr @_ZTVZN3nix12sourceToSinkESt8functionIFvRNS_6SourceEEEE12SourceToSink, i64 0, i32 0, i64 6), ptr %0, align 8
  %2 = getelementptr inbounds i8, ptr %0, i64 48
  %3 = load i8, ptr %2, align 8
  %4 = and i8 %3, 1
  %.not.i.i.i.i.i.i = icmp eq i8 %4, 0
  br i1 %.not.i.i.i.i.i.i, label %_ZNSt8optionalIN5boost11coroutines26detail14push_coroutineIbEEED2Ev.exit.i.i, label %5

5:                                                ; preds = %1
  %6 = getelementptr inbounds i8, ptr %0, i64 40
  store i8 0, ptr %2, align 8
  %7 = load ptr, ptr %6, align 8
  %.not.i.i.i.i.i.i.i.i = icmp eq ptr %7, null
  br i1 %.not.i.i.i.i.i.i.i.i, label %_ZNSt8optionalIN5boost11coroutines26detail14push_coroutineIbEEED2Ev.exit.i.i, label %8

8:                                                ; preds = %5
  tail call void @_ZN5boost11coroutines26detail14push_coroutineIbE13control_block10deallocateEv(ptr noundef nonnull align 8 dereferenceable(32) %7) #34
  br label %_ZNSt8optionalIN5boost11coroutines26detail14push_coroutineIbEEED2Ev.exit.i.i

_ZNSt8optionalIN5boost11coroutines26detail14push_coroutineIbEEED2Ev.exit.i.i: ; preds = %8, %5, %1
  %9 = getelementptr inbounds i8, ptr %0, i64 24
  %10 = load ptr, ptr %9, align 8
  %.not.i.i.i.i = icmp eq ptr %10, null
  br i1 %.not.i.i.i.i, label %_ZZN3nix12sourceToSinkESt8functionIFvRNS_6SourceEEEEN12SourceToSinkD1Ev.exit, label %11

11:                                               ; preds = %_ZNSt8optionalIN5boost11coroutines26detail14push_coroutineIbEEED2Ev.exit.i.i
  %12 = getelementptr inbounds i8, ptr %0, i64 8
  %13 = invoke noundef zeroext i1 %10(ptr noundef nonnull align 8 dereferenceable(16) %12, ptr noundef nonnull align 8 dereferenceable(16) %12, i32 noundef 3)
          to label %_ZZN3nix12sourceToSinkESt8functionIFvRNS_6SourceEEEEN12SourceToSinkD1Ev.exit unwind label %14

14:                                               ; preds = %11
  %15 = landingpad { ptr, i32 }
          catch ptr null
  %16 = extractvalue { ptr, i32 } %15, 0
  tail call void @__clang_call_terminate(ptr %16) #38
  unreachable

_ZZN3nix12sourceToSinkESt8functionIFvRNS_6SourceEEEEN12SourceToSinkD1Ev.exit: ; preds = %_ZNSt8optionalIN5boost11coroutines26detail14push_coroutineIbEEED2Ev.exit.i.i, %11
  tail call void @_ZdlPv(ptr noundef nonnull %0) #36
  ret void
}